target datalayout = "e-m:e-p270:32:32-p271:32:32-p272:64:64-i64:64-i128:128-f80:128-n8:16:32:64-S128"
target triple = "x86_64-pc-linux-gnu"

%struct._zval_struct = type { %union._zend_value, %union.anon.3, %union.anon.6 }
%union._zend_value = type { i64 }
%union.anon.3 = type { i32 }
%union.anon.6 = type { i32 }
%struct._php_stream = type { ptr, ptr, %struct._php_stream_filter_chain, %struct._php_stream_filter_chain, ptr, ptr, %struct._zval_struct, i16, [16 x i8], i32, ptr, ptr, ptr, ptr, i64, ptr, i64, i64, i64, i64, ptr }
%struct._php_stream_filter_chain = type { ptr, ptr, ptr }
%struct._php_stream_bucket = type { ptr, ptr, ptr, ptr, i64, i8, i8, i32 }

; Function Attrs: nounwind uwtable
define ptr @php_stream_bucket_new(ptr noundef %0, ptr noundef %1, i64 noundef %2, i8 noundef zeroext %3, i8 noundef zeroext %4) #0 {
  %6 = alloca ptr, align 8
  %7 = alloca ptr, align 8
  %8 = alloca i64, align 8
  %9 = alloca i8, align 1
  %10 = alloca i8, align 1
  %11 = alloca i32, align 4
  %12 = alloca ptr, align 8
  store ptr %0, ptr %6, align 8
  store ptr %1, ptr %7, align 8
  store i64 %2, ptr %8, align 8
  store i8 %3, ptr %9, align 1
  store i8 %4, ptr %10, align 1
  %13 = load ptr, ptr %6, align 8
  %14 = getelementptr inbounds %struct._php_stream, ptr %13, i32 0, i32 7
  %15 = load i16, ptr %14, align 8
  %16 = and i16 %15, 1
  %17 = zext i16 %16 to i32
  store i32 %17, ptr %11, align 4
  %18 = load i32, ptr %11, align 4
  %19 = icmp ne i32 %18, 0
  br i1 %19, label %20, label %22

20:                                               ; preds = %5
  %21 = call noalias ptr @__zend_malloc(i64 noundef 48) #13
  br label %24

22:                                               ; preds = %5
  %23 = call noalias ptr @_emalloc_48()
  br label %24

24:                                               ; preds = %22, %20
  %25 = phi ptr [ %21, %20 ], [ %23, %22 ]
  store ptr %25, ptr %12, align 8
  %26 = load ptr, ptr %12, align 8
  %27 = getelementptr inbounds %struct._php_stream_bucket, ptr %26, i32 0, i32 1
  store ptr null, ptr %27, align 8
  %28 = load ptr, ptr %12, align 8
  %29 = getelementptr inbounds %struct._php_stream_bucket, ptr %28, i32 0, i32 0
  store ptr null, ptr %29, align 8
  %30 = load i32, ptr %11, align 4
  %31 = icmp ne i32 %30, 0
  br i1 %31, label %32, label %50

32:                                               ; preds = %24
  %33 = load i8, ptr %10, align 1
  %34 = icmp ne i8 %33, 0
  br i1 %34, label %50, label %35

35:                                               ; preds = %32
  %36 = load i64, ptr %8, align 8
  %37 = call noalias ptr @__zend_malloc(i64 noundef %36) #13
  %38 = load ptr, ptr %12, align 8
  %39 = getelementptr inbounds %struct._php_stream_bucket, ptr %38, i32 0, i32 3
  store ptr %37, ptr %39, align 8
  %40 = load ptr, ptr %12, align 8
  %41 = getelementptr inbounds %struct._php_stream_bucket, ptr %40, i32 0, i32 3
  %42 = load ptr, ptr %41, align 8
  %43 = load ptr, ptr %7, align 8
  %44 = load i64, ptr %8, align 8
  call void @llvm.memcpy.p0.p0.i64(ptr align 1 %42, ptr align 1 %43, i64 %44, i1 false)
  %45 = load i64, ptr %8, align 8
  %46 = load ptr, ptr %12, align 8
  %47 = getelementptr inbounds %struct._php_stream_bucket, ptr %46, i32 0, i32 4
  store i64 %45, ptr %47, align 8
  %48 = load ptr, ptr %12, align 8
  %49 = getelementptr inbounds %struct._php_stream_bucket, ptr %48, i32 0, i32 5
  store i8 1, ptr %49, align 8
  br label %60

50:                                               ; preds = %32, %24
  %51 = load ptr, ptr %7, align 8
  %52 = load ptr, ptr %12, align 8
  %53 = getelementptr inbounds %struct._php_stream_bucket, ptr %52, i32 0, i32 3
  store ptr %51, ptr %53, align 8
  %54 = load i64, ptr %8, align 8
  %55 = load ptr, ptr %12, align 8
  %56 = getelementptr inbounds %struct._php_stream_bucket, ptr %55, i32 0, i32 4
  store i64 %54, ptr %56, align 8
  %57 = load i8, ptr %9, align 1
  %58 = load ptr, ptr %12, align 8
  %59 = getelementptr inbounds %struct._php_stream_bucket, ptr %58, i32 0, i32 5
  store i8 %57, ptr %59, align 8
  br label %60

60:                                               ; preds = %50, %35
  %61 = load i32, ptr %11, align 4
  %62 = trunc i32 %61 to i8
  %63 = load ptr, ptr %12, align 8
  %64 = getelementptr inbounds %struct._php_stream_bucket, ptr %63, i32 0, i32 6
  store i8 %62, ptr %64, align 1
  %65 = load ptr, ptr %12, align 8
  %66 = getelementptr inbounds %struct._php_stream_bucket, ptr %65, i32 0, i32 7
  store i32 1, ptr %66, align 4
  %67 = load ptr, ptr %12, align 8
  %68 = getelementptr inbounds %struct._php_stream_bucket, ptr %67, i32 0, i32 2
  store ptr null, ptr %68, align 8
  %69 = load ptr, ptr %12, align 8
  ret ptr %69
}