; Function Attrs: nounwind uwtable
define noalias noundef ptr @php_stream_bucket_new(ptr nocapture noundef readonly %0, ptr noundef %1, i64 noundef %2, i8 noundef zeroext %3, i8 noundef zeroext %4) local_unnamed_addr #2 {
  %6 = getelementptr inbounds i8, ptr %0, i64 96
  %7 = load i16, ptr %6, align 8
  %8 = and i16 %7, 1
  %.not = icmp eq i16 %8, 0
  br i1 %.not, label %.thread, label %10

.thread:                                          ; preds = %5
  %9 = tail call noalias ptr @_emalloc_48() #14
  tail call void @llvm.memset.p0.i64(ptr noundef nonnull align 8 dereferenceable(16) %9, i8 0, i64 16, i1 false)
  br label %15

10:                                               ; preds = %5
  %11 = tail call noalias dereferenceable_or_null(48) ptr @__zend_malloc(i64 noundef 48) #15
  %.not26 = icmp eq i8 %4, 0
  tail call void @llvm.memset.p0.i64(ptr noundef nonnull align 8 dereferenceable(16) %11, i8 0, i64 16, i1 false)
  br i1 %.not26, label %12, label %15

12:                                               ; preds = %10
  %13 = tail call noalias ptr @__zend_malloc(i64 noundef %2) #15
  %14 = getelementptr inbounds i8, ptr %11, i64 24
  store ptr %13, ptr %14, align 8
  tail call void @llvm.memcpy.p0.p0.i64(ptr align 1 %13, ptr align 1 %1, i64 %2, i1 false)
  br label %18

15:                                               ; preds = %.thread, %10
  %16 = phi ptr [ %9, %.thread ], [ %11, %10 ]
  %17 = getelementptr inbounds i8, ptr %16, i64 24
  store ptr %1, ptr %17, align 8
  br label %18

18:                                               ; preds = %15, %12
  %.sink30 = phi ptr [ %16, %15 ], [ %11, %12 ]
  %.sink = phi i8 [ %3, %15 ], [ 1, %12 ]
  %19 = getelementptr inbounds i8, ptr %.sink30, i64 32
  store i64 %2, ptr %19, align 8
  %20 = getelementptr inbounds i8, ptr %.sink30, i64 40
  store i8 %.sink, ptr %20, align 8
  %21 = trunc i16 %8 to i8
  %22 = getelementptr inbounds i8, ptr %.sink30, i64 41
  store i8 %21, ptr %22, align 1
  %23 = getelementptr inbounds i8, ptr %.sink30, i64 44
  store i32 1, ptr %23, align 4
  %24 = getelementptr inbounds i8, ptr %.sink30, i64 16
  store ptr null, ptr %24, align 8
  ret ptr %.sink30
}